; ModuleID = 'source-C-CXX/44/2214.c'
source_filename = "source-C-CXX/44/2214.c"
target datalayout = "e-m:e-p270:32:32-p271:32:32-p272:64:64-i64:64-f80:128-n8:16:32:64-S128"
target triple = "x86_64-pc-linux-gnu"

@.str = private unnamed_addr constant [6 x i8] c"%s %s\00", align 1
@.str.1 = private unnamed_addr constant [4 x i8] c"%d\0A\00", align 1

; Function Attrs: nofree nounwind sspstrong uwtable
define dso_local i32 @main() local_unnamed_addr #0 {
  %1 = alloca [100 x i8], align 16
  %2 = alloca [100 x i8], align 16
  %3 = getelementptr inbounds [100 x i8], [100 x i8]* %1, i64 0, i64 0
  call void @llvm.lifetime.start.p0i8(i64 100, i8* nonnull %3) #4
  %4 = getelementptr inbounds [100 x i8], [100 x i8]* %2, i64 0, i64 0
  call void @llvm.lifetime.start.p0i8(i64 100, i8* nonnull %4) #4
  %5 = call i32 (i8*, ...) @__isoc99_scanf(i8* getelementptr inbounds ([6 x i8], [6 x i8]* @.str, i64 0, i64 0), i8* nonnull %3, i8* nonnull %4)
  %6 = call i64 @strlen(i8* noundef nonnull %3) #5
  %7 = trunc i64 %6 to i32
  %8 = call i64 @strlen(i8* noundef nonnull %4) #5
  %9 = icmp sgt i32 %7, 0
  %10 = trunc i64 %8 to i32
  %11 = icmp sgt i32 %10, 0
  %12 = select i1 %9, i1 %11, i1 false
  br i1 %12, label %13, label %56

13:                                               ; preds = %0
  %14 = and i64 %8, 4294967295
  %15 = and i64 %6, 4294967295
  %16 = trunc i64 %6 to i32
  br label %17

17:                                               ; preds = %45, %13
  %18 = phi i64 [ 0, %13 ], [ %46, %45 ]
  %19 = phi i32 [ 0, %13 ], [ %42, %45 ]
  %20 = phi i32 [ 0, %13 ], [ %47, %45 ]
  %21 = sext i32 %20 to i64
  %22 = getelementptr inbounds [100 x i8], [100 x i8]* %1, i64 0, i64 %21
  %23 = load i8, i8* %22, align 1, !tbaa !5
  %24 = getelementptr inbounds [100 x i8], [100 x i8]* %2, i64 0, i64 %18
  %25 = load i8, i8* %24, align 1, !tbaa !5
  %26 = icmp eq i8 %23, %25
  br i1 %26, label %30, label %40

27:                                               ; preds = %51
  %28 = trunc i64 %18 to i32
  %29 = call i32 (i8*, ...) @printf(i8* nonnull dereferenceable(1) getelementptr inbounds ([4 x i8], [4 x i8]* @.str.1, i64 0, i64 0), i32 %28)
  br label %40

30:                                               ; preds = %17, %48
  %31 = phi i64 [ %49, %48 ], [ 0, %17 ]
  %32 = getelementptr inbounds [100 x i8], [100 x i8]* %1, i64 0, i64 %31
  %33 = load i8, i8* %32, align 1, !tbaa !5
  %34 = add nuw nsw i64 %31, %18
  %35 = getelementptr inbounds [100 x i8], [100 x i8]* %2, i64 0, i64 %34
  %36 = load i8, i8* %35, align 1, !tbaa !5
  %37 = icmp eq i8 %33, %36
  br i1 %37, label %48, label %38

38:                                               ; preds = %30
  %39 = trunc i64 %31 to i32
  br label %40

40:                                               ; preds = %38, %51, %27, %17
  %41 = phi i32 [ %16, %27 ], [ %16, %51 ], [ %20, %17 ], [ %39, %38 ]
  %42 = phi i32 [ 0, %27 ], [ 1, %51 ], [ %19, %17 ], [ 1, %38 ]
  %43 = add nuw nsw i64 %18, 1
  %44 = icmp eq i64 %43, %14
  br i1 %44, label %53, label %45

45:                                               ; preds = %40, %53
  %46 = phi i64 [ %43, %40 ], [ 0, %53 ]
  %47 = phi i32 [ %41, %40 ], [ %54, %53 ]
  br label %17, !llvm.loop !8

48:                                               ; preds = %30
  %49 = add nuw nsw i64 %31, 1
  %50 = icmp eq i64 %49, %15
  br i1 %50, label %51, label %30, !llvm.loop !10

51:                                               ; preds = %48
  %52 = icmp eq i32 %19, 0
  br i1 %52, label %27, label %40

53:                                               ; preds = %40
  %54 = add nsw i32 %41, 1
  %55 = icmp slt i32 %54, %7
  br i1 %55, label %45, label %56

56:                                               ; preds = %53, %0
  call void @llvm.lifetime.end.p0i8(i64 100, i8* nonnull %4) #4
  call void @llvm.lifetime.end.p0i8(i64 100, i8* nonnull %3) #4
  ret i32 0
}

; Function Attrs: argmemonly mustprogress nofree nosync nounwind willreturn
declare void @llvm.lifetime.start.p0i8(i64 immarg, i8* nocapture) #1

; Function Attrs: nofree nounwind
declare noundef i32 @__isoc99_scanf(i8* nocapture noundef readonly, ...) local_unnamed_addr #2

; Function Attrs: argmemonly mustprogress nofree nounwind readonly willreturn
declare i64 @strlen(i8* nocapture) local_unnamed_addr #3

; Function Attrs: nofree nounwind
declare noundef i32 @printf(i8* nocapture noundef readonly, ...) local_unnamed_addr #2

; Function Attrs: argmemonly mustprogress nofree nosync nounwind willreturn
declare void @llvm.lifetime.end.p0i8(i64 immarg, i8* nocapture) #1


!llvm.module.flags = !{!0, !1, !2, !3}
!llvm.ident = !{!4}

!0 = !{i32 1, !"wchar_size", i32 4}
!1 = !{i32 7, !"PIC Level", i32 2}
!2 = !{i32 7, !"PIE Level", i32 2}
!3 = !{i32 7, !"uwtable", i32 1}
!4 = !{!"clang version 13.0.0"}
!5 = !{!6, !6, i64 0}
!6 = !{!"omnipotent char", !7, i64 0}
!7 = !{!"Simple C/C++ TBAA"}
!8 = distinct !{!8, !9}
!9 = !{!"llvm.loop.mustprogress"}
!10 = distinct !{!10, !9}
